; Function Attrs: mustprogress nounwind uwtable
define dso_local void @_ZN5clang14TextNodeDumper11VisitIfStmtEPKNS_6IfStmtE(ptr nocapture noundef nonnull readonly align 8 dereferenceable(1168) %0, ptr nocapture noundef readonly %1) local_unnamed_addr #0 align 2 {
  %3 = load i16, ptr %1, align 8
  %4 = and i16 %3, 8192
  %.not = icmp eq i16 %4, 0
  br i1 %.not, label %_ZN4llvm11raw_ostreamlsEPKc.exit, label %5

5:                                                ; preds = %2
  %6 = getelementptr inbounds nuw i8, ptr %0, i64 1096
  %7 = load ptr, ptr %6, align 8
  %8 = getelementptr inbounds nuw i8, ptr %7, i64 24
  %9 = load ptr, ptr %8, align 8
  %10 = getelementptr inbounds nuw i8, ptr %7, i64 32
  %11 = load ptr, ptr %10, align 8
  %12 = ptrtoint ptr %9 to i64
  %13 = ptrtoint ptr %11 to i64
  %14 = sub i64 %12, %13
  %15 = icmp ult i64 %14, 9
  br i1 %15, label %16, label %18

16:                                               ; preds = %5
  %17 = tail call noundef nonnull align 8 dereferenceable(48) ptr @_ZN4llvm11raw_ostream5writeEPKcm(ptr noundef nonnull align 8 dereferenceable(48) %7, ptr noundef nonnull @.str.583, i64 noundef 9) #18
  br label %_ZN4llvm11raw_ostreamlsEPKc.exit

18:                                               ; preds = %5
  tail call void @llvm.memcpy.p0.p0.i64(ptr noundef nonnull align 1 dereferenceable(9) %11, ptr noundef nonnull align 1 dereferenceable(9) @.str.583, i64 9, i1 false)
  %19 = load ptr, ptr %10, align 8
  %20 = getelementptr inbounds i8, ptr %19, i64 9
  store ptr %20, ptr %10, align 8
  br label %_ZN4llvm11raw_ostreamlsEPKc.exit

_ZN4llvm11raw_ostreamlsEPKc.exit:                 ; preds = %18, %16, %2
  %21 = load i16, ptr %1, align 8
  %22 = and i16 %21, 4096
  %.not25 = icmp eq i16 %22, 0
  br i1 %.not25, label %_ZN4llvm11raw_ostreamlsEPKc.exit9, label %23

23:                                               ; preds = %_ZN4llvm11raw_ostreamlsEPKc.exit
  %24 = getelementptr inbounds nuw i8, ptr %0, i64 1096
  %25 = load ptr, ptr %24, align 8
  %26 = getelementptr inbounds nuw i8, ptr %25, i64 24
  %27 = load ptr, ptr %26, align 8
  %28 = getelementptr inbounds nuw i8, ptr %25, i64 32
  %29 = load ptr, ptr %28, align 8
  %30 = ptrtoint ptr %27 to i64
  %31 = ptrtoint ptr %29 to i64
  %32 = sub i64 %30, %31
  %33 = icmp ult i64 %32, 8
  br i1 %33, label %34, label %36

34:                                               ; preds = %23
  %35 = tail call noundef nonnull align 8 dereferenceable(48) ptr @_ZN4llvm11raw_ostream5writeEPKcm(ptr noundef nonnull align 8 dereferenceable(48) %25, ptr noundef nonnull @.str.584, i64 noundef 8) #18
  br label %_ZN4llvm11raw_ostreamlsEPKc.exit9

36:                                               ; preds = %23
  store i64 8241998945394452512, ptr %29, align 1
  %37 = load ptr, ptr %28, align 8
  %38 = getelementptr inbounds i8, ptr %37, i64 8
  store ptr %38, ptr %28, align 8
  br label %_ZN4llvm11raw_ostreamlsEPKc.exit9

_ZN4llvm11raw_ostreamlsEPKc.exit9:                ; preds = %36, %34, %_ZN4llvm11raw_ostreamlsEPKc.exit
  %39 = load i16, ptr %1, align 8
  %40 = and i16 %39, 2048
  %.not26 = icmp eq i16 %40, 0
  br i1 %.not26, label %_ZN4llvm11raw_ostreamlsEPKc.exit12, label %41

41:                                               ; preds = %_ZN4llvm11raw_ostreamlsEPKc.exit9
  %42 = getelementptr inbounds nuw i8, ptr %0, i64 1096
  %43 = load ptr, ptr %42, align 8
  %44 = getelementptr inbounds nuw i8, ptr %43, i64 24
  %45 = load ptr, ptr %44, align 8
  %46 = getelementptr inbounds nuw i8, ptr %43, i64 32
  %47 = load ptr, ptr %46, align 8
  %48 = ptrtoint ptr %45 to i64
  %49 = ptrtoint ptr %47 to i64
  %50 = sub i64 %48, %49
  %51 = icmp ult i64 %50, 9
  br i1 %51, label %52, label %54

52:                                               ; preds = %41
  %53 = tail call noundef nonnull align 8 dereferenceable(48) ptr @_ZN4llvm11raw_ostream5writeEPKcm(ptr noundef nonnull align 8 dereferenceable(48) %43, ptr noundef nonnull @.str.585, i64 noundef 9) #18
  br label %_ZN4llvm11raw_ostreamlsEPKc.exit12

54:                                               ; preds = %41
  tail call void @llvm.memcpy.p0.p0.i64(ptr noundef nonnull align 1 dereferenceable(9) %47, ptr noundef nonnull align 1 dereferenceable(9) @.str.585, i64 9, i1 false)
  %55 = load ptr, ptr %46, align 8
  %56 = getelementptr inbounds i8, ptr %55, i64 9
  store ptr %56, ptr %46, align 8
  br label %_ZN4llvm11raw_ostreamlsEPKc.exit12

_ZN4llvm11raw_ostreamlsEPKc.exit12:               ; preds = %54, %52, %_ZN4llvm11raw_ostreamlsEPKc.exit9
  %57 = load i16, ptr %1, align 8
  %58 = and i16 %57, 1792
  %59 = icmp eq i16 %58, 256
  br i1 %59, label %60, label %_ZN4llvm11raw_ostreamlsEPKc.exit15

60:                                               ; preds = %_ZN4llvm11raw_ostreamlsEPKc.exit12
  %61 = getelementptr inbounds nuw i8, ptr %0, i64 1096
  %62 = load ptr, ptr %61, align 8
  %63 = getelementptr inbounds nuw i8, ptr %62, i64 24
  %64 = load ptr, ptr %63, align 8
  %65 = getelementptr inbounds nuw i8, ptr %62, i64 32
  %66 = load ptr, ptr %65, align 8
  %67 = ptrtoint ptr %64 to i64
  %68 = ptrtoint ptr %66 to i64
  %69 = sub i64 %67, %68
  %70 = icmp ult i64 %69, 10
  br i1 %70, label %71, label %73

71:                                               ; preds = %60
  %72 = tail call noundef nonnull align 8 dereferenceable(48) ptr @_ZN4llvm11raw_ostream5writeEPKcm(ptr noundef nonnull align 8 dereferenceable(48) %62, ptr noundef nonnull @.str.451, i64 noundef 10) #18
  br label %_ZN4llvm11raw_ostreamlsEPKc.exit15

73:                                               ; preds = %60
  tail call void @llvm.memcpy.p0.p0.i64(ptr noundef nonnull align 1 dereferenceable(10) %66, ptr noundef nonnull align 1 dereferenceable(10) @.str.451, i64 10, i1 false)
  %74 = load ptr, ptr %65, align 8
  %75 = getelementptr inbounds i8, ptr %74, i64 10
  store ptr %75, ptr %65, align 8
  br label %_ZN4llvm11raw_ostreamlsEPKc.exit15

_ZN4llvm11raw_ostreamlsEPKc.exit15:               ; preds = %73, %71, %_ZN4llvm11raw_ostreamlsEPKc.exit12
  %76 = load i16, ptr %1, align 8
  %77 = and i16 %76, 1536
  %spec.select.i = icmp eq i16 %77, 512
  br i1 %spec.select.i, label %78, label %_ZN4llvm11raw_ostreamlsEPKc.exit24

78:                                               ; preds = %_ZN4llvm11raw_ostreamlsEPKc.exit15
  %79 = getelementptr inbounds nuw i8, ptr %0, i64 1096
  %80 = load ptr, ptr %79, align 8
  %81 = getelementptr inbounds nuw i8, ptr %80, i64 24
  %82 = load ptr, ptr %81, align 8
  %83 = getelementptr inbounds nuw i8, ptr %80, i64 32
  %84 = load ptr, ptr %83, align 8
  %85 = icmp eq ptr %82, %84
  br i1 %85, label %86, label %88

86:                                               ; preds = %78
  %87 = tail call noundef nonnull align 8 dereferenceable(48) ptr @_ZN4llvm11raw_ostream5writeEPKcm(ptr noundef nonnull align 8 dereferenceable(48) %80, ptr noundef nonnull @.str.433, i64 noundef 1) #18
  br label %_ZN4llvm11raw_ostreamlsEPKc.exit18

88:                                               ; preds = %78
  store i8 32, ptr %84, align 1
  %89 = load ptr, ptr %83, align 8
  %90 = getelementptr inbounds i8, ptr %89, i64 1
  store ptr %90, ptr %83, align 8
  br label %_ZN4llvm11raw_ostreamlsEPKc.exit18

_ZN4llvm11raw_ostreamlsEPKc.exit18:               ; preds = %86, %88
  %91 = load i16, ptr %1, align 8
  %92 = and i16 %91, 1792
  %93 = icmp eq i16 %92, 768
  br i1 %93, label %94, label %_ZN4llvm11raw_ostreamlsEPKc.exit21

94:                                               ; preds = %_ZN4llvm11raw_ostreamlsEPKc.exit18
  %95 = load ptr, ptr %79, align 8
  %96 = getelementptr inbounds nuw i8, ptr %95, i64 24
  %97 = load ptr, ptr %96, align 8
  %98 = getelementptr inbounds nuw i8, ptr %95, i64 32
  %99 = load ptr, ptr %98, align 8
  %100 = icmp eq ptr %97, %99
  br i1 %100, label %101, label %103

101:                                              ; preds = %94
  %102 = tail call noundef nonnull align 8 dereferenceable(48) ptr @_ZN4llvm11raw_ostream5writeEPKcm(ptr noundef nonnull align 8 dereferenceable(48) %95, ptr noundef nonnull @.str.586, i64 noundef 1) #18
  br label %_ZN4llvm11raw_ostreamlsEPKc.exit21

103:                                              ; preds = %94
  store i8 33, ptr %99, align 1
  %104 = load ptr, ptr %98, align 8
  %105 = getelementptr inbounds i8, ptr %104, i64 1
  store ptr %105, ptr %98, align 8
  br label %_ZN4llvm11raw_ostreamlsEPKc.exit21

_ZN4llvm11raw_ostreamlsEPKc.exit21:               ; preds = %103, %101, %_ZN4llvm11raw_ostreamlsEPKc.exit18
  %106 = load ptr, ptr %79, align 8
  %107 = getelementptr inbounds nuw i8, ptr %106, i64 24
  %108 = load ptr, ptr %107, align 8
  %109 = getelementptr inbounds nuw i8, ptr %106, i64 32
  %110 = load ptr, ptr %109, align 8
  %111 = ptrtoint ptr %108 to i64
  %112 = ptrtoint ptr %110 to i64
  %113 = sub i64 %111, %112
  %114 = icmp ult i64 %113, 9
  br i1 %114, label %115, label %117

115:                                              ; preds = %_ZN4llvm11raw_ostreamlsEPKc.exit21
  %116 = tail call noundef nonnull align 8 dereferenceable(48) ptr @_ZN4llvm11raw_ostream5writeEPKcm(ptr noundef nonnull align 8 dereferenceable(48) %106, ptr noundef nonnull @.str.587, i64 noundef 9) #18
  br label %_ZN4llvm11raw_ostreamlsEPKc.exit24

117:                                              ; preds = %_ZN4llvm11raw_ostreamlsEPKc.exit21
  tail call void @llvm.memcpy.p0.p0.i64(ptr noundef nonnull align 1 dereferenceable(9) %110, ptr noundef nonnull align 1 dereferenceable(9) @.str.587, i64 9, i1 false)
  %118 = load ptr, ptr %109, align 8
  %119 = getelementptr inbounds i8, ptr %118, i64 9
  store ptr %119, ptr %109, align 8
  br label %_ZN4llvm11raw_ostreamlsEPKc.exit24

_ZN4llvm11raw_ostreamlsEPKc.exit24:               ; preds = %117, %115, %_ZN4llvm11raw_ostreamlsEPKc.exit15
  ret void
}